ccopy_reg
_reconstructor
p0
(csklearn.ensemble.weight_boosting
AdaBoostClassifier
p1
c__builtin__
object
p2
Ntp3
Rp4
(dp5
S'base_estimator'
p6
g0
(csklearn.tree.tree
DecisionTreeClassifier
p7
g2
Ntp8
Rp9
(dp10
S'presort'
p11
I00
sS'splitter'
p12
S'best'
p13
sS'tree_'
p14
NsS'n_features_'
p15
NsS'n_outputs_'
p16
NsS'n_classes_'
p17
NsS'random_state'
p18
NsS'classes_'
p19
NsS'max_features_'
p20
NsS'min_samples_leaf'
p21
I1
sS'max_features'
p22
NsS'min_weight_fraction_leaf'
p23
F0.0
sS'criterion'
p24
S'gini'
p25
sS'max_leaf_nodes'
p26
NsS'min_samples_split'
p27
I2
sS'max_depth'
p28
NsS'class_weight'
p29
NsbsS'estimators_'
p30
(lp31
sS'algorithm'
p32
S'SAMME'
p33
sS'learning_rate'
p34
F1.0
sS'n_estimators'
p35
I50
sg18
NsS'estimator_params'
p36
(tsb.