ccopy_reg
_reconstructor
p0
(csklearn.pipeline
Pipeline
p1
c__builtin__
object
p2
Ntp3
Rp4
(dp5
S'steps'
p6
(lp7
(S'scaler'
p8
g0
(csklearn.preprocessing.data
StandardScaler
p9
g2
Ntp10
Rp11
(dp12
S'copy'
p13
I01
sS'with_mean'
p14
I01
sS'with_std'
p15
I01
sbtp16
a(S'reduce_dim'
p17
g0
(csklearn.decomposition.pca
PCA
p18
g2
Ntp19
Rp20
(dp21
g13
I01
sS'n_components'
p22
I3
sS'whiten'
p23
I00
sbtp24
a(S'classification'
p25
g0
(csklearn.naive_bayes
GaussianNB
p26
g2
Ntp27
Rp28
tp29
asb.